(lp0
(S'cppflags'
p1
ccopy_reg
_reconstructor
p2
(cino.utils
SpaceList
p3
c__builtin__
list
p4
(lp5
S'-mmcu=atmega328p'
p6
aS'-DF_CPU=16000000L'
p7
aS'-DARDUINO=101'
p8
aS'-I/usr/share/arduino/hardware/arduino/cores/arduino'
p9
aS'-ffunction-sections'
p10
aS'-fdata-sections'
p11
aS'-g'
p12
aS'-Os'
p13
aS'-w'
p14
aS'-I/usr/share/arduino/hardware/arduino/variants/standard'
p15
aS'-I/usr/share/arduino/hardware/arduino/cores/arduino'
p16
atp17
Rp18
tp19
a(S'cxx'
p20
S'/usr/bin/avr-g++'
p21
tp22
a(S'build_dir'
p23
S'.build/uno'
p24
tp25
a(S'avrdude'
p26
S'/usr/share/arduino/hardware/tools/avrdude'
p27
tp28
a(S'ar'
p29
S'/usr/bin/avr-ar'
p30
tp31
a(S'names'
p32
(dp33
S'cpp'
p34
S'%s.cpp'
p35
sS'obj'
p36
S'%s.o'
p37
sS'deps'
p38
S'%s.d'
p39
sS'lib'
p40
S'lib%s.a'
p41
stp42
a(S'ldflags'
p43
g2
(g3
g4
(lp44
g6
aS'-Wl,-Os'
p45
aS'-Wl,--gc-sections'
p46
atp47
Rp48
tp49
a(S'arduino_lib_version'
p50
g2
(cino.environment
Version
p51
c__builtin__
tuple
p52
(I1
I0
I1
tp53
tp54
Rp55
tp56
a(S'objcopy'
p57
S'/usr/bin/avr-objcopy'
p58
tp59
a(S'board_models'
p60
cino.environment
BoardModels
p61
((lp62
(lp63
S'uno'
p64
a(dp65
S'bootloader'
p66
(dp67
S'extended_fuses'
p68
S'0x05'
p69
sS'high_fuses'
p70
S'0xde'
p71
sS'low_fuses'
p72
S'0xff'
p73
sS'lock_bits'
p74
S'0x0F'
p75
sS'file'
p76
S'optiboot_atmega328.hex'
p77
sS'path'
p78
S'optiboot'
p79
sS'unlock_bits'
p80
S'0x3F'
p81
ssS'build'
p82
(dp83
S'core'
p84
S'arduino'
p85
sS'mcu'
p86
S'atmega328p'
p87
sS'f_cpu'
p88
S'16000000L'
p89
sS'variant'
p90
S'standard'
p91
ssS'name'
p92
S'Arduino Uno'
p93
sS'upload'
p94
(dp95
S'speed'
p96
S'115200'
p97
sS'maximum_size'
p98
S'32256'
p99
sS'protocol'
p100
S'arduino'
p101
ssaa(lp102
S'alamode'
p103
a(dp104
S'bootloader'
p105
(dp106
S'extended_fuses'
p107
S'0x05'
p108
sS'high_fuses'
p109
S'0xde'
p110
sS'low_fuses'
p111
S'0xff'
p112
sS'lock_bits'
p113
S'0x0F'
p114
sS'file'
p115
S'optiboot_atmega328.hex'
p116
sS'path'
p117
S'optiboot'
p118
sS'unlock_bits'
p119
S'0x3F'
p120
ssS'build'
p121
(dp122
S'core'
p123
S'arduino'
p124
sS'mcu'
p125
S'atmega328p'
p126
sS'f_cpu'
p127
S'16000000L'
p128
sS'variant'
p129
S'standard'
p130
ssS'name'
p131
S'AlaMode'
p132
sS'upload'
p133
(dp134
S'speed'
p135
S'115200'
p136
sS'maximum_size'
p137
S'32256'
p138
sS'protocol'
p139
S'alamode'
p140
ssaa(lp141
S'atmega328'
p142
a(dp143
S'bootloader'
p144
(dp145
S'extended_fuses'
p146
S'0x05'
p147
sS'high_fuses'
p148
S'0xDA'
p149
sS'low_fuses'
p150
S'0xFF'
p151
sS'lock_bits'
p152
S'0x0F'
p153
sS'file'
p154
S'ATmegaBOOT_168_atmega328.hex'
p155
sS'path'
p156
S'atmega'
p157
sS'unlock_bits'
p158
S'0x3F'
p159
ssS'build'
p160
(dp161
S'core'
p162
S'arduino'
p163
sS'mcu'
p164
S'atmega328p'
p165
sS'f_cpu'
p166
S'16000000L'
p167
sS'variant'
p168
S'standard'
p169
ssS'name'
p170
S'Arduino Duemilanove w/ ATmega328'
p171
sS'upload'
p172
(dp173
S'speed'
p174
S'57600'
p175
sS'maximum_size'
p176
S'30720'
p177
sS'protocol'
p178
S'arduino'
p179
ssaa(lp180
S'diecimila'
p181
a(dp182
S'bootloader'
p183
(dp184
S'extended_fuses'
p185
S'0x00'
p186
sS'high_fuses'
p187
S'0xdd'
p188
sS'low_fuses'
p189
S'0xff'
p190
sS'lock_bits'
p191
S'0x0F'
p192
sS'file'
p193
S'ATmegaBOOT_168_diecimila.hex'
p194
sS'path'
p195
S'atmega'
p196
sS'unlock_bits'
p197
S'0x3F'
p198
ssS'build'
p199
(dp200
S'core'
p201
S'arduino'
p202
sS'mcu'
p203
S'atmega168'
p204
sS'f_cpu'
p205
S'16000000L'
p206
sS'variant'
p207
S'standard'
p208
ssS'name'
p209
S'Arduino Diecimila or Duemilanove w/ ATmega168'
p210
sS'upload'
p211
(dp212
S'speed'
p213
S'19200'
p214
sS'maximum_size'
p215
S'14336'
p216
sS'protocol'
p217
S'arduino'
p218
ssaa(lp219
S'nano328'
p220
a(dp221
S'bootloader'
p222
(dp223
S'extended_fuses'
p224
S'0x05'
p225
sS'high_fuses'
p226
S'0xDA'
p227
sS'low_fuses'
p228
S'0xFF'
p229
sS'lock_bits'
p230
S'0x0F'
p231
sS'file'
p232
S'ATmegaBOOT_168_atmega328.hex'
p233
sS'path'
p234
S'atmega'
p235
sS'unlock_bits'
p236
S'0x3F'
p237
ssS'build'
p238
(dp239
S'core'
p240
S'arduino'
p241
sS'mcu'
p242
S'atmega328p'
p243
sS'f_cpu'
p244
S'16000000L'
p245
sS'variant'
p246
S'eightanaloginputs'
p247
ssS'name'
p248
S'Arduino Nano w/ ATmega328'
p249
sS'upload'
p250
(dp251
S'speed'
p252
S'57600'
p253
sS'maximum_size'
p254
S'30720'
p255
sS'protocol'
p256
S'arduino'
p257
ssaa(lp258
S'nano'
p259
a(dp260
S'bootloader'
p261
(dp262
S'extended_fuses'
p263
S'0x00'
p264
sS'high_fuses'
p265
S'0xdd'
p266
sS'low_fuses'
p267
S'0xff'
p268
sS'lock_bits'
p269
S'0x0F'
p270
sS'file'
p271
S'ATmegaBOOT_168_diecimila.hex'
p272
sS'path'
p273
S'atmega'
p274
sS'unlock_bits'
p275
S'0x3F'
p276
ssS'build'
p277
(dp278
S'core'
p279
S'arduino'
p280
sS'mcu'
p281
S'atmega168'
p282
sS'f_cpu'
p283
S'16000000L'
p284
sS'variant'
p285
S'eightanaloginputs'
p286
ssS'name'
p287
S'Arduino Nano w/ ATmega168'
p288
sS'upload'
p289
(dp290
S'speed'
p291
S'19200'
p292
sS'maximum_size'
p293
S'14336'
p294
sS'protocol'
p295
S'arduino'
p296
ssaa(lp297
S'mega2560'
p298
a(dp299
S'bootloader'
p300
(dp301
S'extended_fuses'
p302
S'0xFD'
p303
sS'high_fuses'
p304
S'0xD8'
p305
sS'low_fuses'
p306
S'0xFF'
p307
sS'lock_bits'
p308
S'0x0F'
p309
sS'file'
p310
S'stk500boot_v2_mega2560.hex'
p311
sS'path'
p312
S'stk500v2'
p313
sS'unlock_bits'
p314
S'0x3F'
p315
ssS'build'
p316
(dp317
S'core'
p318
S'arduino'
p319
sS'mcu'
p320
S'atmega2560'
p321
sS'f_cpu'
p322
S'16000000L'
p323
sS'variant'
p324
S'mega'
p325
ssS'name'
p326
S'Arduino Mega 2560 or Mega ADK'
p327
sS'upload'
p328
(dp329
S'speed'
p330
S'115200'
p331
sS'maximum_size'
p332
S'258048'
p333
sS'protocol'
p334
S'stk500v2'
p335
ssaa(lp336
S'mega'
p337
a(dp338
S'bootloader'
p339
(dp340
S'extended_fuses'
p341
S'0xF5'
p342
sS'high_fuses'
p343
S'0xDA'
p344
sS'low_fuses'
p345
S'0xFF'
p346
sS'lock_bits'
p347
S'0x0F'
p348
sS'file'
p349
S'ATmegaBOOT_168_atmega1280.hex'
p350
sS'path'
p351
S'atmega'
p352
sS'unlock_bits'
p353
S'0x3F'
p354
ssS'build'
p355
(dp356
S'core'
p357
S'arduino'
p358
sS'mcu'
p359
S'atmega1280'
p360
sS'f_cpu'
p361
S'16000000L'
p362
sS'variant'
p363
S'mega'
p364
ssS'name'
p365
S'Arduino Mega (ATmega1280)'
p366
sS'upload'
p367
(dp368
S'speed'
p369
S'57600'
p370
sS'maximum_size'
p371
S'126976'
p372
sS'protocol'
p373
S'arduino'
p374
ssaa(lp375
S'mini328'
p376
a(dp377
S'bootloader'
p378
(dp379
S'extended_fuses'
p380
S'0x05'
p381
sS'high_fuses'
p382
S'0xd8'
p383
sS'low_fuses'
p384
S'0xff'
p385
sS'lock_bits'
p386
S'0x0F'
p387
sS'file'
p388
S'optiboot_atmega328-Mini.hex'
p389
sS'path'
p390
S'optiboot'
p391
sS'unlock_bits'
p392
S'0x3F'
p393
ssS'build'
p394
(dp395
S'core'
p396
S'arduino'
p397
sS'mcu'
p398
S'atmega328p'
p399
sS'f_cpu'
p400
S'16000000L'
p401
sS'variant'
p402
S'eightanaloginputs'
p403
ssS'name'
p404
S'Arduino Mini w/ ATmega328'
p405
sS'upload'
p406
(dp407
S'speed'
p408
S'115200'
p409
sS'maximum_size'
p410
S'28672'
p411
sS'protocol'
p412
S'stk500'
p413
ssaa(lp414
S'mini'
p415
a(dp416
S'bootloader'
p417
(dp418
S'extended_fuses'
p419
S'0x00'
p420
sS'high_fuses'
p421
S'0xdd'
p422
sS'low_fuses'
p423
S'0xff'
p424
sS'lock_bits'
p425
S'0x0F'
p426
sS'file'
p427
S'ATmegaBOOT_168_ng.hex'
p428
sS'path'
p429
S'atmega'
p430
sS'unlock_bits'
p431
S'0x3F'
p432
ssS'build'
p433
(dp434
S'core'
p435
S'arduino'
p436
sS'mcu'
p437
S'atmega168'
p438
sS'f_cpu'
p439
S'16000000L'
p440
sS'variant'
p441
S'eightanaloginputs'
p442
ssS'name'
p443
S'Arduino Mini w/ ATmega168'
p444
sS'upload'
p445
(dp446
S'speed'
p447
S'19200'
p448
sS'maximum_size'
p449
S'14336'
p450
sS'protocol'
p451
S'arduino'
p452
ssaa(lp453
S'ethernet'
p454
a(dp455
S'bootloader'
p456
(dp457
S'extended_fuses'
p458
S'0x05'
p459
sS'high_fuses'
p460
S'0xde'
p461
sS'low_fuses'
p462
S'0xff'
p463
sS'lock_bits'
p464
S'0x0F'
p465
sS'file'
p466
S'optiboot_atmega328.hex'
p467
sS'path'
p468
S'optiboot'
p469
sS'unlock_bits'
p470
S'0x3F'
p471
ssS'build'
p472
(dp473
S'f_cpu'
p474
S'16000000L'
p475
sS'mcu'
p476
S'atmega328p'
p477
sS'variant'
p478
S'standard'
p479
sS'core'
p480
S'arduino'
p481
ssS'name'
p482
S'Arduino Ethernet'
p483
sS'upload'
p484
(dp485
S'speed'
p486
S'115200'
p487
sS'maximum_size'
p488
S'32256'
p489
sS'protocol'
p490
S'arduino'
p491
ssaa(lp492
S'fio'
p493
a(dp494
S'bootloader'
p495
(dp496
S'extended_fuses'
p497
S'0x05'
p498
sS'high_fuses'
p499
S'0xDA'
p500
sS'low_fuses'
p501
S'0xFF'
p502
sS'lock_bits'
p503
S'0x0F'
p504
sS'file'
p505
S'ATmegaBOOT_168_atmega328_pro_8MHz.hex'
p506
sS'path'
p507
S'arduino:atmega'
p508
sS'unlock_bits'
p509
S'0x3F'
p510
ssS'build'
p511
(dp512
S'core'
p513
S'arduino'
p514
sS'mcu'
p515
S'atmega328p'
p516
sS'f_cpu'
p517
S'8000000L'
p518
sS'variant'
p519
S'eightanaloginputs'
p520
ssS'name'
p521
S'Arduino Fio'
p522
sS'upload'
p523
(dp524
S'speed'
p525
S'57600'
p526
sS'maximum_size'
p527
S'30720'
p528
sS'protocol'
p529
S'arduino'
p530
ssaa(lp531
S'bt328'
p532
a(dp533
S'bootloader'
p534
(dp535
S'extended_fuses'
p536
S'0x05'
p537
sS'high_fuses'
p538
S'0xd8'
p539
sS'low_fuses'
p540
S'0xff'
p541
sS'lock_bits'
p542
S'0x0F'
p543
sS'file'
p544
S'ATmegaBOOT_168_atmega328_bt.hex'
p545
sS'path'
p546
S'bt'
p547
sS'unlock_bits'
p548
S'0x3F'
p549
ssS'build'
p550
(dp551
S'core'
p552
S'arduino'
p553
sS'mcu'
p554
S'atmega328p'
p555
sS'f_cpu'
p556
S'16000000L'
p557
sS'variant'
p558
S'eightanaloginputs'
p559
ssS'name'
p560
S'Arduino BT w/ ATmega328'
p561
sS'upload'
p562
(dp563
S'speed'
p564
S'19200'
p565
sS'maximum_size'
p566
S'28672'
p567
sS'protocol'
p568
S'arduino'
p569
sS'disable_flushing'
p570
S'true'
p571
ssaa(lp572
S'bt'
p573
a(dp574
S'bootloader'
p575
(dp576
S'extended_fuses'
p577
S'0x00'
p578
sS'high_fuses'
p579
S'0xdd'
p580
sS'low_fuses'
p581
S'0xff'
p582
sS'lock_bits'
p583
S'0x0F'
p584
sS'file'
p585
S'ATmegaBOOT_168.hex'
p586
sS'path'
p587
S'bt'
p588
sS'unlock_bits'
p589
S'0x3F'
p590
ssS'build'
p591
(dp592
S'core'
p593
S'arduino'
p594
sS'mcu'
p595
S'atmega168'
p596
sS'f_cpu'
p597
S'16000000L'
p598
sS'variant'
p599
S'eightanaloginputs'
p600
ssS'name'
p601
S'Arduino BT w/ ATmega168'
p602
sS'upload'
p603
(dp604
S'speed'
p605
S'19200'
p606
sS'maximum_size'
p607
S'14336'
p608
sS'protocol'
p609
S'arduino'
p610
sS'disable_flushing'
p611
S'true'
p612
ssaa(lp613
S'lilypad328'
p614
a(dp615
S'bootloader'
p616
(dp617
S'extended_fuses'
p618
S'0x05'
p619
sS'high_fuses'
p620
S'0xDA'
p621
sS'low_fuses'
p622
S'0xFF'
p623
sS'lock_bits'
p624
S'0x0F'
p625
sS'file'
p626
S'ATmegaBOOT_168_atmega328_pro_8MHz.hex'
p627
sS'path'
p628
S'atmega'
p629
sS'unlock_bits'
p630
S'0x3F'
p631
ssS'build'
p632
(dp633
S'core'
p634
S'arduino'
p635
sS'mcu'
p636
S'atmega328p'
p637
sS'f_cpu'
p638
S'8000000L'
p639
sS'variant'
p640
S'standard'
p641
ssS'name'
p642
S'LilyPad Arduino w/ ATmega328'
p643
sS'upload'
p644
(dp645
S'speed'
p646
S'57600'
p647
sS'maximum_size'
p648
S'30720'
p649
sS'protocol'
p650
S'arduino'
p651
ssaa(lp652
S'lilypad'
p653
a(dp654
S'bootloader'
p655
(dp656
S'extended_fuses'
p657
S'0x00'
p658
sS'high_fuses'
p659
S'0xdd'
p660
sS'low_fuses'
p661
S'0xe2'
p662
sS'lock_bits'
p663
S'0x0F'
p664
sS'file'
p665
S'LilyPadBOOT_168.hex'
p666
sS'path'
p667
S'lilypad'
p668
sS'unlock_bits'
p669
S'0x3F'
p670
ssS'build'
p671
(dp672
S'core'
p673
S'arduino'
p674
sS'mcu'
p675
S'atmega168'
p676
sS'f_cpu'
p677
S'8000000L'
p678
sS'variant'
p679
S'standard'
p680
ssS'name'
p681
S'LilyPad Arduino w/ ATmega168'
p682
sS'upload'
p683
(dp684
S'speed'
p685
S'19200'
p686
sS'maximum_size'
p687
S'14336'
p688
sS'protocol'
p689
S'arduino'
p690
ssaa(lp691
S'pro5v328'
p692
a(dp693
S'bootloader'
p694
(dp695
S'extended_fuses'
p696
S'0x05'
p697
sS'high_fuses'
p698
S'0xDA'
p699
sS'low_fuses'
p700
S'0xFF'
p701
sS'lock_bits'
p702
S'0x0F'
p703
sS'file'
p704
S'ATmegaBOOT_168_atmega328.hex'
p705
sS'path'
p706
S'atmega'
p707
sS'unlock_bits'
p708
S'0x3F'
p709
ssS'build'
p710
(dp711
S'core'
p712
S'arduino'
p713
sS'mcu'
p714
S'atmega328p'
p715
sS'f_cpu'
p716
S'16000000L'
p717
sS'variant'
p718
S'standard'
p719
ssS'name'
p720
S'Arduino Pro or Pro Mini (5V, 16 MHz) w/ ATmega328'
p721
sS'upload'
p722
(dp723
S'speed'
p724
S'57600'
p725
sS'maximum_size'
p726
S'30720'
p727
sS'protocol'
p728
S'arduino'
p729
ssaa(lp730
S'pro5v'
p731
a(dp732
S'bootloader'
p733
(dp734
S'extended_fuses'
p735
S'0x00'
p736
sS'high_fuses'
p737
S'0xdd'
p738
sS'low_fuses'
p739
S'0xff'
p740
sS'lock_bits'
p741
S'0x0F'
p742
sS'file'
p743
S'ATmegaBOOT_168_diecimila.hex'
p744
sS'path'
p745
S'atmega'
p746
sS'unlock_bits'
p747
S'0x3F'
p748
ssS'build'
p749
(dp750
S'core'
p751
S'arduino'
p752
sS'mcu'
p753
S'atmega168'
p754
sS'f_cpu'
p755
S'16000000L'
p756
sS'variant'
p757
S'standard'
p758
ssS'name'
p759
S'Arduino Pro or Pro Mini (5V, 16 MHz) w/ ATmega168'
p760
sS'upload'
p761
(dp762
S'speed'
p763
S'19200'
p764
sS'maximum_size'
p765
S'14336'
p766
sS'protocol'
p767
S'arduino'
p768
ssaa(lp769
S'pro328'
p770
a(dp771
S'bootloader'
p772
(dp773
S'extended_fuses'
p774
S'0x05'
p775
sS'high_fuses'
p776
S'0xDA'
p777
sS'low_fuses'
p778
S'0xFF'
p779
sS'lock_bits'
p780
S'0x0F'
p781
sS'file'
p782
S'ATmegaBOOT_168_atmega328_pro_8MHz.hex'
p783
sS'path'
p784
S'atmega'
p785
sS'unlock_bits'
p786
S'0x3F'
p787
ssS'build'
p788
(dp789
S'core'
p790
S'arduino'
p791
sS'mcu'
p792
S'atmega328p'
p793
sS'f_cpu'
p794
S'8000000L'
p795
sS'variant'
p796
S'standard'
p797
ssS'name'
p798
S'Arduino Pro or Pro Mini (3.3V, 8 MHz) w/ ATmega328'
p799
sS'upload'
p800
(dp801
S'speed'
p802
S'57600'
p803
sS'maximum_size'
p804
S'30720'
p805
sS'protocol'
p806
S'arduino'
p807
ssaa(lp808
S'pro'
p809
a(dp810
S'bootloader'
p811
(dp812
S'extended_fuses'
p813
S'0x00'
p814
sS'high_fuses'
p815
S'0xdd'
p816
sS'low_fuses'
p817
S'0xc6'
p818
sS'lock_bits'
p819
S'0x0F'
p820
sS'file'
p821
S'ATmegaBOOT_168_pro_8MHz.hex'
p822
sS'path'
p823
S'atmega'
p824
sS'unlock_bits'
p825
S'0x3F'
p826
ssS'build'
p827
(dp828
S'core'
p829
S'arduino'
p830
sS'mcu'
p831
S'atmega168'
p832
sS'f_cpu'
p833
S'8000000L'
p834
sS'variant'
p835
S'standard'
p836
ssS'name'
p837
S'Arduino Pro or Pro Mini (3.3V, 8 MHz) w/ ATmega168'
p838
sS'upload'
p839
(dp840
S'speed'
p841
S'19200'
p842
sS'maximum_size'
p843
S'14336'
p844
sS'protocol'
p845
S'arduino'
p846
ssaa(lp847
S'atmega168'
p848
a(dp849
S'bootloader'
p850
(dp851
S'extended_fuses'
p852
S'0x00'
p853
sS'high_fuses'
p854
S'0xdd'
p855
sS'low_fuses'
p856
S'0xff'
p857
sS'lock_bits'
p858
S'0x0F'
p859
sS'file'
p860
S'ATmegaBOOT_168_ng.hex'
p861
sS'path'
p862
S'atmega'
p863
sS'unlock_bits'
p864
S'0x3F'
p865
ssS'build'
p866
(dp867
S'core'
p868
S'arduino'
p869
sS'mcu'
p870
S'atmega168'
p871
sS'f_cpu'
p872
S'16000000L'
p873
sS'variant'
p874
S'standard'
p875
ssS'name'
p876
S'Arduino NG or older w/ ATmega168'
p877
sS'upload'
p878
(dp879
S'speed'
p880
S'19200'
p881
sS'maximum_size'
p882
S'14336'
p883
sS'protocol'
p884
S'arduino'
p885
ssaa(lp886
S'atmega8'
p887
a(dp888
S'bootloader'
p889
(dp890
S'high_fuses'
p891
S'0xca'
p892
sS'low_fuses'
p893
S'0xdf'
p894
sS'lock_bits'
p895
S'0x0F'
p896
sS'file'
p897
S'ATmegaBOOT.hex'
p898
sS'path'
p899
S'atmega8'
p900
sS'unlock_bits'
p901
S'0x3F'
p902
ssS'build'
p903
(dp904
S'core'
p905
S'arduino'
p906
sS'mcu'
p907
S'atmega8'
p908
sS'f_cpu'
p909
S'16000000L'
p910
sS'variant'
p911
S'standard'
p912
ssS'name'
p913
S'Arduino NG or older w/ ATmega8'
p914
sS'upload'
p915
(dp916
S'speed'
p917
S'19200'
p918
sS'maximum_size'
p919
S'7168'
p920
sS'protocol'
p921
S'arduino'
p922
ssaatp923
Rp924
(dp925
S'default'
p926
S'uno'
p927
sbtp928
a(S'used_libs'
p929
(lp930
S'/usr/share/arduino/hardware/arduino/cores/arduino'
p931
atp932
a(S'make'
p933
S'/usr/bin/make'
p934
tp935
a(S'arduino_libraries_dir'
p936
S'/usr/share/arduino/libraries'
p937
tp938
a(S'cc'
p939
S'/usr/bin/avr-gcc'
p940
tp941
a(S'cflags'
p942
g2
(g3
g4
(lp943
tp944
Rp945
tp946
a(S'cxxflags'
p947
g2
(g3
g4
(lp948
S'-fno-exceptions'
p949
atp950
Rp951
tp952
a(S'arduino_variants_dir'
p953
S'/usr/share/arduino/hardware/arduino/variants'
p954
tp955
a(S'serial'
p956
S'/usr/bin/picocom'
p957
tp958
a(S'stty'
p959
S'/bin/stty'
p960
tp961
a(S'version.txt'
p962
S'/usr/share/arduino/lib/version.txt'
p963
tp964
a(S'arduino_core_dir'
p965
g931
tp966
a(S'boards.txt'
p967
S'/usr/share/arduino/hardware/arduino/boards.txt'
p968
tp969
a(S'avrdude.conf'
p970
S'/usr/share/arduino/hardware/tools/avrdude.conf'
p971
tp972
a(S'deps'
p973
g2
(g3
g4
(lp974
S'.build/alamode/src/dependencies.d'
p975
aS'.build/alamode/arduino/dependencies.d'
p976
atp977
Rp978
tp979
a.